; Function Attrs: mustprogress uwtable
define dso_local void @_ZN4base13HistogramBase7AddTimeERKNS_9TimeDeltaE(ptr noundef nonnull align 8 dereferenceable(44) %this, ptr noundef nonnull align 8 dereferenceable(8) %time) local_unnamed_addr #0 align 2 {
entry:
  %call = tail call noundef i64 @_ZNK4base9TimeDelta14InMillisecondsEv(ptr noundef nonnull align 8 dereferenceable(8) %time)
  %conv = trunc i64 %call to i32
  %vtable = load ptr, ptr %this, align 8
  %vfn = getelementptr inbounds i8, ptr %vtable, i64 40
  %0 = load ptr, ptr %vfn, align 8
  tail call void %0(ptr noundef nonnull align 8 dereferenceable(44) %this, i32 noundef %conv)
  ret void
}